; Function Attrs: nounwind uwtable
define internal i32 @ft_sdf_set_mode(ptr noundef readonly captures(none) %0, i64 noundef %1, ptr noundef %2) #2 {
  %4 = getelementptr inbounds nuw i8, ptr %0, i64 24
  %5 = load ptr, ptr %4, align 8, !tbaa !67
  %6 = getelementptr inbounds nuw i8, ptr %5, i64 112
  %7 = load ptr, ptr %6, align 8, !tbaa !68
  %8 = getelementptr inbounds nuw i8, ptr %7, i64 24
  %9 = load ptr, ptr %8, align 8, !tbaa !72
  %10 = getelementptr inbounds nuw i8, ptr %0, i64 104
  %11 = load ptr, ptr %10, align 8, !tbaa !66
  %12 = tail call i32 %9(ptr noundef %11, i64 noundef %1, ptr noundef %2) #11
  ret i32 %12
}